target datalayout = "e-m:e-p270:32:32-p271:32:32-p272:64:64-i64:64-i128:128-f80:128-n8:16:32:64-S128"
target triple = "x86_64-unknown-linux-gnu"

%"class.std::basic_string_view" = type { i64, ptr }
%"class.std::__shared_count" = type { ptr }
%"class.grpc_core::HealthProducer::HealthChecker" = type { %"class.grpc_core::InternallyRefCounted", %"class.grpc_core::WeakRefCountedPtr", %"class.std::basic_string_view", %"class.std::shared_ptr", %"class.std::optional", %"class.absl::lts_20230802::Status", %"class.std::unique_ptr", %"class.std::set" }
%"class.grpc_core::InternallyRefCounted" = type { %"class.grpc_core::Orphanable", %"class.grpc_core::RefCount" }
%"class.grpc_core::Orphanable" = type { ptr }
%"class.grpc_core::RefCount" = type { %"struct.std::atomic.0" }
%"struct.std::atomic.0" = type { %"struct.std::__atomic_base.1" }
%"struct.std::__atomic_base.1" = type { i64 }
%"class.grpc_core::WeakRefCountedPtr" = type { ptr }
%"class.std::shared_ptr" = type { %"class.std::__shared_ptr" }
%"class.std::__shared_ptr" = type { ptr, %"class.std::__shared_count" }
%"class.std::optional" = type { %"struct.std::_Optional_base" }
%"struct.std::_Optional_base" = type { %"struct.std::_Optional_payload" }
%"struct.std::_Optional_payload" = type { %"struct.std::_Optional_payload_base.base", [3 x i8] }
%"struct.std::_Optional_payload_base.base" = type <{ %"union.std::_Optional_payload_base<grpc_connectivity_state>::_Storage", i8 }>
%"union.std::_Optional_payload_base<grpc_connectivity_state>::_Storage" = type { i32 }
%"class.absl::lts_20230802::Status" = type { i64 }
%"class.std::unique_ptr" = type { %"struct.std::__uniq_ptr_data" }
%"struct.std::__uniq_ptr_data" = type { %"class.std::__uniq_ptr_impl" }
%"class.std::__uniq_ptr_impl" = type { %"class.std::tuple" }
%"class.std::tuple" = type { %"struct.std::_Tuple_impl" }
%"struct.std::_Tuple_impl" = type { %"struct.std::_Head_base.3" }
%"struct.std::_Head_base.3" = type { ptr }
%"class.std::set" = type { %"class.std::_Rb_tree" }
%"class.std::_Rb_tree" = type { %"struct.std::_Rb_tree<grpc_core::HealthWatcher *, grpc_core::HealthWatcher *, std::_Identity<grpc_core::HealthWatcher *>, std::less<grpc_core::HealthWatcher *>>::_Rb_tree_impl" }
%"struct.std::_Rb_tree<grpc_core::HealthWatcher *, grpc_core::HealthWatcher *, std::_Identity<grpc_core::HealthWatcher *>, std::less<grpc_core::HealthWatcher *>>::_Rb_tree_impl" = type { %"struct.std::_Rb_tree_key_compare", %"struct.std::_Rb_tree_header" }
%"struct.std::_Rb_tree_key_compare" = type { %"struct.std::less" }
%"struct.std::less" = type { i8 }
%"struct.std::_Rb_tree_header" = type { %"struct.std::_Rb_tree_node_base", i64 }
%"struct.std::_Rb_tree_node_base" = type { i32, ptr, ptr, ptr }

; Function Attrs: mustprogress nounwind uwtable
define linkonce_odr noundef zeroext i1 @_ZNKSt8_Rb_treeIPN9grpc_core13HealthWatcherES2_St9_IdentityIS2_ESt4lessIS2_ESaIS2_EE5emptyEv(ptr noundef nonnull align 8 dereferenceable(48) %this) #5 comdat align 2 {
entry:
  %this.addr = alloca ptr, align 8
  store ptr %this, ptr %this.addr, align 8
  %this1 = load ptr, ptr %this.addr, align 8
  %_M_impl = getelementptr inbounds %"class.std::_Rb_tree", ptr %this1, i32 0, i32 0
  %add.ptr = getelementptr inbounds i8, ptr %_M_impl, i64 8
  %_M_node_count = getelementptr inbounds %"struct.std::_Rb_tree_header", ptr %add.ptr, i32 0, i32 1
  %0 = load i64, ptr %_M_node_count, align 8
  %cmp = icmp eq i64 %0, 0
  ret i1 %cmp
}

; Function Attrs: mustprogress nounwind uwtable
define linkonce_odr noundef zeroext i1 @_ZNKSt3setIPN9grpc_core13HealthWatcherESt4lessIS2_ESaIS2_EE5emptyEv(ptr noundef nonnull align 8 dereferenceable(48) %this) #5 comdat align 2 {
entry:
  %this.addr = alloca ptr, align 8
  store ptr %this, ptr %this.addr, align 8
  %this1 = load ptr, ptr %this.addr, align 8
  %_M_t = getelementptr inbounds %"class.std::set", ptr %this1, i32 0, i32 0
  %call = call noundef zeroext i1 @_ZNKSt8_Rb_treeIPN9grpc_core13HealthWatcherES2_St9_IdentityIS2_ESt4lessIS2_ESaIS2_EE5emptyEv(ptr noundef nonnull align 8 dereferenceable(48) %_M_t) #3
  ret i1 %call
}

; Function Attrs: mustprogress uwtable
define linkonce_odr noundef i64 @_ZNSt3setIPN9grpc_core13HealthWatcherESt4lessIS2_ESaIS2_EE5eraseERKS2_(ptr noundef nonnull align 8 dereferenceable(48) %this, ptr noundef nonnull align 8 dereferenceable(8) %__x) #4 comdat align 2 {
entry:
  %this.addr = alloca ptr, align 8
  %__x.addr = alloca ptr, align 8
  store ptr %this, ptr %this.addr, align 8
  store ptr %__x, ptr %__x.addr, align 8
  %this1 = load ptr, ptr %this.addr, align 8
  %_M_t = getelementptr inbounds %"class.std::set", ptr %this1, i32 0, i32 0
  %0 = load ptr, ptr %__x.addr, align 8
  %call = call noundef i64 @_ZNSt8_Rb_treeIPN9grpc_core13HealthWatcherES2_St9_IdentityIS2_ESt4lessIS2_ESaIS2_EE5eraseERKS2_(ptr noundef nonnull align 8 dereferenceable(48) %_M_t, ptr noundef nonnull align 8 dereferenceable(8) %0)
  ret i64 %call
}

; Function Attrs: mustprogress uwtable
define noundef zeroext i1 @_ZN9grpc_core14HealthProducer13HealthChecker19RemoveWatcherLockedEPNS_13HealthWatcherE(ptr noundef nonnull align 8 dereferenceable(128) %this, ptr noundef %watcher) #4 align 2 {
entry:
  %this.addr = alloca ptr, align 8
  %watcher.addr = alloca ptr, align 8
  store ptr %this, ptr %this.addr, align 8
  store ptr %watcher, ptr %watcher.addr, align 8
  %this1 = load ptr, ptr %this.addr, align 8
  %watchers_ = getelementptr inbounds %"class.grpc_core::HealthProducer::HealthChecker", ptr %this1, i32 0, i32 7
  %call = call noundef i64 @_ZNSt3setIPN9grpc_core13HealthWatcherESt4lessIS2_ESaIS2_EE5eraseERKS2_(ptr noundef nonnull align 8 dereferenceable(48) %watchers_, ptr noundef nonnull align 8 dereferenceable(8) %watcher.addr)
  %watchers_2 = getelementptr inbounds %"class.grpc_core::HealthProducer::HealthChecker", ptr %this1, i32 0, i32 7
  %call3 = call noundef zeroext i1 @_ZNKSt3setIPN9grpc_core13HealthWatcherESt4lessIS2_ESaIS2_EE5emptyEv(ptr noundef nonnull align 8 dereferenceable(48) %watchers_2) #3
  ret i1 %call3
}