; Function Attrs: mustprogress uwtable
define noundef zeroext i1 @_ZN9grpc_core14HealthProducer13HealthChecker19RemoveWatcherLockedEPNS_13HealthWatcherE(ptr noundef nonnull align 8 dereferenceable(128) %this, ptr noundef %watcher) local_unnamed_addr #3 align 2 {
entry:
  %watcher.addr = alloca ptr, align 8
  store ptr %watcher, ptr %watcher.addr, align 8
  %watchers_ = getelementptr inbounds i8, ptr %this, i64 80
  %call.i = call noundef i64 @_ZNSt8_Rb_treeIPN9grpc_core13HealthWatcherES2_St9_IdentityIS2_ESt4lessIS2_ESaIS2_EE5eraseERKS2_(ptr noundef nonnull align 8 dereferenceable(48) %watchers_, ptr noundef nonnull align 8 dereferenceable(8) %watcher.addr)
  %_M_node_count.i.i = getelementptr inbounds i8, ptr %this, i64 120
  %0 = load i64, ptr %_M_node_count.i.i, align 8
  %cmp.i.i = icmp eq i64 %0, 0
  ret i1 %cmp.i.i
}